Certificate:
    Data:
        Version: 3 (0x2)
        Serial Number:
            0d:18:7e:a9:9b:29:2c:3e:80:aa:55:80:d4:9c:88:8c
    Signature Algorithm: ecdsa-with-SHA256
        Issuer: O=SharpLab., CN=spring-security-webauthn test root CA
        Validity
            Not Before: Sep 22 03:19:11 2017 GMT
            Not After : Aug 29 03:19:11 2117 GMT
        Subject: O=SharpLab., CN=spring-security-webauthn test intermediate CA
        Subject Public Key Info:
            Public Key Algorithm: id-ecPublicKey
                Public-Key: (256 bit)
                pub: 
                    04:43:8b:99:7f:0f:6d:ab:90:ee:aa:1b:f7:73:41:
                    6a:4b:2a:7d:4f:e3:d8:07:7e:62:dd:f1:5a:83:03:
                    67:c4:2d:46:40:c3:a3:73:63:00:f9:d4:89:ef:64:
                    9f:ee:35:42:69:53:5b:c8:a2:4a:fe:da:00:ec:eb:
                    eb:b6:df:58:77
                ASN1 OID: prime256v1
                NIST CURVE: P-256
        X509v3 extensions:
            X509v3 Basic Constraints: critical
                CA:TRUE, pathlen:0
            X509v3 Key Usage: critical
                Certificate Sign, CRL Sign
            X509v3 Subject Key Identifier: 
                A4:F8:8B:6C:D5:B6:74:7C:8A:11:22:9E:34:CE:7B:E6:07:92:C6:1D
    Signature Algorithm: ecdsa-with-SHA256
         30:46:02:21:00:c6:cb:60:32:0f:57:de:e9:7e:7e:e5:bb:b0:
         52:30:15:7d:2c:09:94:19:4f:90:1e:d6:07:eb:ab:43:01:d2:
         95:02:21:00:af:df:3c:a7:ad:a6:e9:b7:d6:c1:11:cf:ad:ce:
         67:1b:e5:e6:6b:e4:cf:60:a7:ed:58:95:32:d4:24:e7:34:78
-----BEGIN CERTIFICATE-----
MIIB1jCCAXugAwIBAgIQDRh+qZspLD6AqlWA1JyIjDAKBggqhkjOPQQDAjBEMRIw
EAYDVQQKDAlTaGFycExhYi4xLjAsBgNVBAMMJXNwcmluZy1zZWN1cml0eS13ZWJh
dXRobiB0ZXN0IHJvb3QgQ0EwIBcNMTcwOTIyMDMxOTExWhgPMjExNzA4MjkwMzE5
MTFaMEwxEjAQBgNVBAoMCVNoYXJwTGFiLjE2MDQGA1UEAwwtc3ByaW5nLXNlY3Vy
aXR5LXdlYmF1dGhuIHRlc3QgaW50ZXJtZWRpYXRlIENBMFkwEwYHKoZIzj0CAQYI
KoZIzj0DAQcDQgAEQ4uZfw9tq5Duqhv3c0FqSyp9T+PYB35i3fFagwNnxC1GQMOj
c2MA+dSJ72Sf7jVCaVNbyKJK/toA7Ovrtt9Yd6NFMEMwEgYDVR0TAQH/BAgwBgEB
/wIBADAOBgNVHQ8BAf8EBAMCAQYwHQYDVR0OBBYEFKT4i2zVtnR8ihEinjTOe+YH
ksYdMAoGCCqGSM49BAMCA0kAMEYCIQDGy2AyD1fe6X5+5buwUjAVfSwJlBlPkB7W
B+urQwHSlQIhAK/fPKetpum31sERz63OZxvl5mvkz2Cn7ViVMtQk5zR4
-----END CERTIFICATE-----
