Certificate:
    Data:
        Version: 1 (0x0)
        Serial Number:
            0d:18:7e:a9:9b:29:2c:3e:80:aa:55:80:d4:9c:88:8a
    Signature Algorithm: ecdsa-with-SHA256
        Issuer: C=JP, O=SharpLab., CN=spring-security-webauthn test root CA
        Validity
            Not Before: Sep 22 02:57:38 2017 GMT
            Not After : Aug 29 02:57:38 2117 GMT
        Subject: C=JP, O=SharpLab., CN=spring-security-webauthn test root CA
        Subject Public Key Info:
            Public Key Algorithm: id-ecPublicKey
                Public-Key: (256 bit)
                pub: 
                    04:cd:77:2e:b9:c5:ba:54:35:e1:33:41:ca:b5:0a:
                    01:7a:c8:6a:46:c3:c7:94:0f:7f:94:76:5b:f9:ca:
                    38:eb:68:2d:ba:0f:e6:55:89:4a:98:28:fa:c1:3a:
                    75:8d:17:19:39:17:bc:e9:1e:56:65:46:8c:33:41:
                    40:84:dd:ff:22
                ASN1 OID: prime256v1
                NIST CURVE: P-256
    Signature Algorithm: ecdsa-with-SHA256
         30:44:02:20:36:8f:8c:9e:de:f0:78:34:7b:ff:25:fe:a4:fb:
         ce:6a:f2:a7:65:47:86:eb:e5:88:43:6e:6a:80:b9:54:38:e7:
         02:20:78:8f:ed:3f:e6:aa:a5:b3:26:ef:af:4d:37:b2:19:ec:
         48:1e:4d:7c:3b:84:72:be:d5:ef:d1:73:ae:d1:3d:94
-----BEGIN CERTIFICATE-----
MIIBmjCCAUECEA0YfqmbKSw+gKpVgNSciIowCgYIKoZIzj0EAwIwUTELMAkGA1UE
BhMCSlAxEjAQBgNVBAoMCVNoYXJwTGFiLjEuMCwGA1UEAwwlc3ByaW5nLXNlY3Vy
aXR5LXdlYmF1dGhuIHRlc3Qgcm9vdCBDQTAgFw0xNzA5MjIwMjU3MzhaGA8yMTE3
MDgyOTAyNTczOFowUTELMAkGA1UEBhMCSlAxEjAQBgNVBAoMCVNoYXJwTGFiLjEu
MCwGA1UEAwwlc3ByaW5nLXNlY3VyaXR5LXdlYmF1dGhuIHRlc3Qgcm9vdCBDQTBZ
MBMGByqGSM49AgEGCCqGSM49AwEHA0IABM13LrnFulQ14TNByrUKAXrIakbDx5QP
f5R2W/nKOOtoLboP5lWJSpgo+sE6dY0XGTkXvOkeVmVGjDNBQITd/yIwCgYIKoZI
zj0EAwIDRwAwRAIgNo+Mnt7weDR7/yX+pPvOavKnZUeG6+WIQ25qgLlUOOcCIHiP
7T/mqqWzJu+vTTeyGexIHk18O4RyvtXv0XOu0T2U
-----END CERTIFICATE-----
