Certificate:
    Data:
        Version: 3 (0x2)
        Serial Number:
            f0:b1:f2:31:18:4e:4a:87:e1:15:aa:8e:b3:7a:bb:6e
    Signature Algorithm: ecdsa-with-SHA256
        Issuer: 
        Validity
            Not Before: Sep 22 00:57:07 2017 GMT
            Not After : Aug 29 00:57:07 2117 GMT
        Subject: 
        Subject Public Key Info:
            Public Key Algorithm: id-ecPublicKey
                Public-Key: (256 bit)
                pub: 
                    04:cd:77:2e:b9:c5:ba:54:35:e1:33:41:ca:b5:0a:
                    01:7a:c8:6a:46:c3:c7:94:0f:7f:94:76:5b:f9:ca:
                    38:eb:68:2d:ba:0f:e6:55:89:4a:98:28:fa:c1:3a:
                    75:8d:17:19:39:17:bc:e9:1e:56:65:46:8c:33:41:
                    40:84:dd:ff:22
                ASN1 OID: prime256v1
                NIST CURVE: P-256
        X509v3 extensions:
            X509v3 Basic Constraints: critical
                CA:TRUE
            X509v3 Key Usage: critical
                Certificate Sign, CRL Sign
    Signature Algorithm: ecdsa-with-SHA256
         30:44:02:20:3d:75:b3:70:73:d2:83:2e:b5:fa:71:30:e5:82:
         db:78:7a:d9:d9:87:d6:c5:e4:9e:b1:f1:f6:49:0c:bd:a0:39:
         02:20:30:d2:72:e2:e8:75:5f:05:ef:bb:09:5c:f1:07:e2:3e:
         77:1e:eb:3f:b1:28:f5:f6:db:73:97:46:26:90:99:77
-----BEGIN CERTIFICATE-----
MIIBIjCByqADAgECAhEA8LHyMRhOSofhFaqOs3q7bjAKBggqhkjOPQQDAjAAMCAX
DTE3MDkyMjAwNTcwN1oYDzIxMTcwODI5MDA1NzA3WjAAMFkwEwYHKoZIzj0CAQYI
KoZIzj0DAQcDQgAEzXcuucW6VDXhM0HKtQoBeshqRsPHlA9/lHZb+co462gtug/m
VYlKmCj6wTp1jRcZORe86R5WZUaMM0FAhN3/IqMjMCEwDwYDVR0TAQH/BAUwAwEB
/zAOBgNVHQ8BAf8EBAMCAQYwCgYIKoZIzj0EAwIDRwAwRAIgPXWzcHPSgy61+nEw
5YLbeHrZ2YfWxeSesfH2SQy9oDkCIDDScuLodV8F77sJXPEH4j53Hus/sSj19ttz
l0YmkJl3
-----END CERTIFICATE-----
