Certificate:
    Data:
        Version: 1 (0x0)
        Serial Number:
            0d:18:7e:a9:9b:29:2c:3e:80:aa:55:80:d4:9c:88:8e
    Signature Algorithm: ecdsa-with-SHA256
        Issuer: O=SharpLab., CN=spring-security-webauthn test intermediate CA
        Validity
            Not Before: May 20 06:57:46 2018 GMT
            Not After : Apr 26 06:57:46 2118 GMT
        Subject: C=JP, O=SharpLab., OU=Authenticator Attestation, CN=webauthn4j test 3tier authenticator attestation
        Subject Public Key Info:
            Public Key Algorithm: id-ecPublicKey
                Public-Key: (256 bit)
                pub: 
                    04:88:64:f0:3f:e5:95:76:80:d5:9c:ee:04:2e:98:
                    4e:1c:ff:b8:10:7c:e6:04:a6:da:3e:4c:4d:42:8f:
                    b9:c0:55:f3:4a:7f:ed:e8:fa:19:70:db:ec:fb:5d:
                    d4:1b:02:7d:0a:1f:a2:e4:59:27:74:17:1d:0f:2c:
                    ed:3a:8f:63:af
                ASN1 OID: prime256v1
                NIST CURVE: P-256
    Signature Algorithm: ecdsa-with-SHA256
         30:44:02:20:1b:8a:19:80:be:e2:bf:ba:b4:24:e6:cd:d5:39:
         fd:6f:2d:d3:f0:26:b2:2b:5c:ed:1e:26:f5:f4:af:7a:00:6b:
         02:20:49:c0:ba:66:6d:93:2d:eb:e5:4f:56:b6:48:6e:d0:77:
         e1:fb:5f:f5:c6:d7:99:04:65:94:6d:d7:ae:2e:c8:48
-----BEGIN CERTIFICATE-----
MIIBwzCCAWoCEA0YfqmbKSw+gKpVgNSciI4wCgYIKoZIzj0EAwIwTDESMBAGA1UE
CgwJU2hhcnBMYWIuMTYwNAYDVQQDDC1zcHJpbmctc2VjdXJpdHktd2ViYXV0aG4g
dGVzdCBpbnRlcm1lZGlhdGUgQ0EwIBcNMTgwNTIwMDY1NzQ2WhgPMjExODA0MjYw
NjU3NDZaMH8xCzAJBgNVBAYTAkpQMRIwEAYDVQQKDAlTaGFycExhYi4xIjAgBgNV
BAsMGUF1dGhlbnRpY2F0b3IgQXR0ZXN0YXRpb24xODA2BgNVBAMML3dlYmF1dGhu
NGogdGVzdCAzdGllciBhdXRoZW50aWNhdG9yIGF0dGVzdGF0aW9uMFkwEwYHKoZI
zj0CAQYIKoZIzj0DAQcDQgAEiGTwP+WVdoDVnO4ELphOHP+4EHzmBKbaPkxNQo+5
wFXzSn/t6PoZcNvs+13UGwJ9Ch+i5FkndBcdDyztOo9jrzAKBggqhkjOPQQDAgNH
ADBEAiAbihmAvuK/urQk5s3VOf1vLdPwJrIrXO0eJvX0r3oAawIgScC6Zm2TLevl
T1a2SG7Qd+H7X/XG15kEZZRt164uyEg=
-----END CERTIFICATE-----
