Certificate:
    Data:
        Version: 3 (0x2)
        Serial Number:
            0d:18:7e:a9:9b:29:2c:3e:80:aa:55:80:d4:9c:88:8f
    Signature Algorithm: ecdsa-with-SHA256
        Issuer: O=SharpLab., CN=spring-security-webauthn test intermediate CA
        Validity
            Not Before: May 20 07:10:46 2018 GMT
            Not After : Apr 26 07:10:46 2118 GMT
        Subject: C=JP, O=SharpLab., OU=Authenticator Attestation, CN=webauthn4j test 3tier authenticator attestation
        Subject Public Key Info:
            Public Key Algorithm: id-ecPublicKey
                Public-Key: (256 bit)
                pub: 
                    04:88:64:f0:3f:e5:95:76:80:d5:9c:ee:04:2e:98:
                    4e:1c:ff:b8:10:7c:e6:04:a6:da:3e:4c:4d:42:8f:
                    b9:c0:55:f3:4a:7f:ed:e8:fa:19:70:db:ec:fb:5d:
                    d4:1b:02:7d:0a:1f:a2:e4:59:27:74:17:1d:0f:2c:
                    ed:3a:8f:63:af
                ASN1 OID: prime256v1
                NIST CURVE: P-256
        X509v3 extensions:
            X509v3 Basic Constraints: critical
                CA:FALSE
            X509v3 Key Usage: critical
                Digital Signature
            X509v3 Subject Key Identifier: 
                B7:0B:6D:CC:A7:15:62:C4:C0:0D:93:F2:2D:F6:9E:58:53:77:E1:AC
    Signature Algorithm: ecdsa-with-SHA256
         30:44:02:20:76:d3:3c:70:68:b0:6f:d5:05:26:15:cc:09:55:
         6d:aa:02:30:3d:43:0f:6b:11:54:44:98:a6:b7:5b:23:e7:37:
         02:20:7b:c2:b2:4a:01:c5:07:24:e9:c5:6e:c8:25:c5:2f:85:
         d6:83:55:65:d1:0c:3d:24:3f:27:79:73:45:2a:be:fb
-----BEGIN CERTIFICATE-----
MIICCTCCAbCgAwIBAgIQDRh+qZspLD6AqlWA1JyIjzAKBggqhkjOPQQDAjBMMRIw
EAYDVQQKDAlTaGFycExhYi4xNjA0BgNVBAMMLXNwcmluZy1zZWN1cml0eS13ZWJh
dXRobiB0ZXN0IGludGVybWVkaWF0ZSBDQTAgFw0xODA1MjAwNzEwNDZaGA8yMTE4
MDQyNjA3MTA0NlowfzELMAkGA1UEBhMCSlAxEjAQBgNVBAoMCVNoYXJwTGFiLjEi
MCAGA1UECwwZQXV0aGVudGljYXRvciBBdHRlc3RhdGlvbjE4MDYGA1UEAwwvd2Vi
YXV0aG40aiB0ZXN0IDN0aWVyIGF1dGhlbnRpY2F0b3IgYXR0ZXN0YXRpb24wWTAT
BgcqhkjOPQIBBggqhkjOPQMBBwNCAASIZPA/5ZV2gNWc7gQumE4c/7gQfOYEpto+
TE1Cj7nAVfNKf+3o+hlw2+z7XdQbAn0KH6LkWSd0Fx0PLO06j2Ovoz8wPTAMBgNV
HRMBAf8EAjAAMA4GA1UdDwEB/wQEAwIHgDAdBgNVHQ4EFgQUtwttzKcVYsTADZPy
LfaeWFN34awwCgYIKoZIzj0EAwIDRwAwRAIgdtM8cGiwb9UFJhXMCVVtqgIwPUMP
axFURJimt1sj5zcCIHvCskoBxQck6cVuyCXFL4XWg1Vl0Qw9JD8neXNFKr77
-----END CERTIFICATE-----
