Certificate:
    Data:
        Version: 1 (0x0)
        Serial Number:
            20:f7:63:c0:41:83:b1:05:37:db:e8:50:6a:22:50:f1
    Signature Algorithm: sha256WithRSAEncryption
        Issuer: O=SharpLab., CN=spring-security-webauthn 2tier test root CA
        Validity
            Not Before: May 20 06:47:20 2018 GMT
            Not After : Apr 26 06:47:20 2118 GMT
        Subject: C=JP, O=SharpLab., OU=Attestation Certificate, CN=webauthn4j test 2tier authenticator attestation
        Subject Public Key Info:
            Public Key Algorithm: id-ecPublicKey
                Public-Key: (256 bit)
                pub: 
                    04:60:e7:5b:ac:89:8e:02:08:d9:37:75:db:f2:e9:
                    df:1c:78:49:0c:83:5d:23:29:28:96:df:b2:a4:6c:
                    5c:ae:8a:78:2b:06:ee:8d:7d:b3:be:84:46:66:f7:
                    68:43:d9:ae:fa:bc:23:01:9b:78:1f:74:8c:b1:2c:
                    4f:bc:1f:33:f0
                ASN1 OID: prime256v1
                NIST CURVE: P-256
    Signature Algorithm: sha256WithRSAEncryption
         a1:0a:02:72:1a:f8:20:88:de:89:1d:80:d3:f8:9e:04:c9:35:
         89:00:a8:4e:93:9a:83:94:24:95:29:42:1f:b4:e3:fb:6a:62:
         45:4d:eb:f3:b5:43:1f:f1:1f:22:6e:c0:bf:87:de:21:9a:8f:
         3f:46:b3:6e:3e:91:aa:1e:46:23:67:c5:31:88:63:7e:bc:6b:
         d6:23:c1:6a:56:04:64:82:93:90:40:c8:dc:05:e4:90:ae:0e:
         bc:49:1e:cc:94:14:bf:0a:55:e5:28:5e:8f:5b:a7:c6:b5:af:
         38:99:a9:10:c7:07:b9:2c:2a:3a:8e:69:d1:7d:81:ba:49:b6:
         19:d7:e5:c9:65:73:7a:19:62:83:1b:62:59:f2:9d:cf:d4:a5:
         d0:4d:92:3d:0a:86:b7:fe:39:69:be:89:5f:71:24:f6:fc:3a:
         4a:15:8e:46:d0:6b:74:50:62:a6:be:3e:cf:2f:e9:1f:35:da:
         5c:d2:66:54:00:89:57:9a:fc:ff:12:b7:ce:b3:7f:cc:c2:83:
         26:49:4f:e9:a8:05:be:b4:f7:d7:2c:f4:ef:33:0d:23:b5:3a:
         f6:36:c3:bd:03:84:31:0d:7e:52:e9:fb:35:a7:65:ff:11:b0:
         05:12:84:91:21:34:5b:52:d7:d4:0d:3d:7f:85:d3:1e:87:9f:
         80:a1:9d:6d
-----BEGIN CERTIFICATE-----
MIICgTCCAWkCECD3Y8BBg7EFN9voUGoiUPEwDQYJKoZIhvcNAQELBQAwSjESMBAG
A1UECgwJU2hhcnBMYWIuMTQwMgYDVQQDDCtzcHJpbmctc2VjdXJpdHktd2ViYXV0
aG4gMnRpZXIgdGVzdCByb290IENBMCAXDTE4MDUyMDA2NDcyMFoYDzIxMTgwNDI2
MDY0NzIwWjB9MQswCQYDVQQGEwJKUDESMBAGA1UECgwJU2hhcnBMYWIuMSAwHgYD
VQQLDBdBdHRlc3RhdGlvbiBDZXJ0aWZpY2F0ZTE4MDYGA1UEAwwvd2ViYXV0aG40
aiB0ZXN0IDJ0aWVyIGF1dGhlbnRpY2F0b3IgYXR0ZXN0YXRpb24wWTATBgcqhkjO
PQIBBggqhkjOPQMBBwNCAARg51usiY4CCNk3ddvy6d8ceEkMg10jKSiW37KkbFyu
ingrBu6NfbO+hEZm92hD2a76vCMBm3gfdIyxLE+8HzPwMA0GCSqGSIb3DQEBCwUA
A4IBAQChCgJyGvggiN6JHYDT+J4EyTWJAKhOk5qDlCSVKUIftOP7amJFTevztUMf
8R8ibsC/h94hmo8/RrNuPpGqHkYjZ8UxiGN+vGvWI8FqVgRkgpOQQMjcBeSQrg68
SR7MlBS/ClXlKF6PW6fGta84makQxwe5LCo6jmnRfYG6SbYZ1+XJZXN6GWKDG2JZ
8p3P1KXQTZI9Coa3/jlpvolfcST2/DpKFY5G0Gt0UGKmvj7PL+kfNdpc0mZUAIlX
mvz/ErfOs3/MwoMmSU/pqAW+tPfXLPTvMw0jtTr2NsO9A4QxDX5S6fs1p2X/EbAF
EoSRITRbUtfUDT1/hdMeh5+AoZ1t
-----END CERTIFICATE-----
