Certificate:
    Data:
        Version: 1 (0x0)
        Serial Number:
            20:f7:63:c0:41:83:b1:05:37:db:e8:50:6a:22:50:ef
    Signature Algorithm: sha256WithRSAEncryption
        Issuer: O=SharpLab., CN=spring-security-webauthn 2tier test root CA
        Validity
            Not Before: May 20 06:01:50 2018 GMT
            Not After : Apr 26 06:01:50 2118 GMT
        Subject: ST=Some-State, O=SharpLab., OU=Authenticator Attestation, CN=webauthn4j 2tier test authenticator attestation
        Subject Public Key Info:
            Public Key Algorithm: id-ecPublicKey
                Public-Key: (256 bit)
                pub: 
                    04:60:e7:5b:ac:89:8e:02:08:d9:37:75:db:f2:e9:
                    df:1c:78:49:0c:83:5d:23:29:28:96:df:b2:a4:6c:
                    5c:ae:8a:78:2b:06:ee:8d:7d:b3:be:84:46:66:f7:
                    68:43:d9:ae:fa:bc:23:01:9b:78:1f:74:8c:b1:2c:
                    4f:bc:1f:33:f0
                ASN1 OID: prime256v1
                NIST CURVE: P-256
    Signature Algorithm: sha256WithRSAEncryption
         26:46:c2:f1:d8:57:42:2c:01:71:b6:7e:14:20:86:6f:ce:51:
         f8:51:1e:92:bd:0c:53:e8:a6:d8:e8:cf:2f:ef:00:25:d2:d4:
         14:1e:e5:40:21:bd:99:ec:cf:e9:71:6d:d5:9c:8a:7c:88:8f:
         e1:ae:c4:77:76:65:8b:15:5f:8e:67:f4:2e:46:f0:ab:e5:dc:
         42:79:8b:00:3e:08:48:a9:7d:d7:de:64:ae:64:78:59:81:4b:
         fa:fe:94:7f:e9:64:bc:f2:53:fa:cd:c6:1a:bd:8e:60:a7:65:
         46:02:71:01:22:33:0a:e5:5a:b2:07:50:06:34:16:96:52:c2:
         1f:72:8f:7e:bb:2a:14:10:e3:61:e2:90:5a:19:45:c4:4b:44:
         7a:1a:c1:44:af:8a:96:7a:25:72:04:21:5a:b1:ef:d0:1b:5c:
         2f:21:d9:9b:84:d0:5b:04:62:92:3f:10:92:14:c4:4e:93:fe:
         a3:8a:d2:f2:9b:35:eb:1e:4e:fb:aa:b7:e6:84:94:dd:5f:99:
         51:b5:3a:b9:1b:32:da:46:ba:0b:4c:f6:ee:71:74:59:ea:11:
         60:a8:af:b3:1b:10:4f:bb:b9:72:46:f8:1c:4d:bf:d4:7f:7d:
         c1:d6:8e:47:d0:be:97:33:62:dd:f5:ac:9c:19:64:46:6c:ff:
         54:5c:93:8d
-----BEGIN CERTIFICATE-----
MIICjDCCAXQCECD3Y8BBg7EFN9voUGoiUO8wDQYJKoZIhvcNAQELBQAwSjESMBAG
A1UECgwJU2hhcnBMYWIuMTQwMgYDVQQDDCtzcHJpbmctc2VjdXJpdHktd2ViYXV0
aG4gMnRpZXIgdGVzdCByb290IENBMCAXDTE4MDUyMDA2MDE1MFoYDzIxMTgwNDI2
MDYwMTUwWjCBhzETMBEGA1UECAwKU29tZS1TdGF0ZTESMBAGA1UECgwJU2hhcnBM
YWIuMSIwIAYDVQQLDBlBdXRoZW50aWNhdG9yIEF0dGVzdGF0aW9uMTgwNgYDVQQD
DC93ZWJhdXRobjRqIDJ0aWVyIHRlc3QgYXV0aGVudGljYXRvciBhdHRlc3RhdGlv
bjBZMBMGByqGSM49AgEGCCqGSM49AwEHA0IABGDnW6yJjgII2Td12/Lp3xx4SQyD
XSMpKJbfsqRsXK6KeCsG7o19s76ERmb3aEPZrvq8IwGbeB90jLEsT7wfM/AwDQYJ
KoZIhvcNAQELBQADggEBACZGwvHYV0IsAXG2fhQghm/OUfhRHpK9DFPoptjozy/v
ACXS1BQe5UAhvZnsz+lxbdWcinyIj+GuxHd2ZYsVX45n9C5G8Kvl3EJ5iwA+CEip
fdfeZK5keFmBS/r+lH/pZLzyU/rNxhq9jmCnZUYCcQEiMwrlWrIHUAY0FpZSwh9y
j367KhQQ42HikFoZRcRLRHoawUSvipZ6JXIEIVqx79AbXC8h2ZuE0FsEYpI/EJIU
xE6T/qOK0vKbNeseTvuqt+aElN1fmVG1OrkbMtpGugtM9u5xdFnqEWCor7MbEE+7
uXJG+BxNv9R/fcHWjkfQvpczYt31rJwZZEZs/1Rck40=
-----END CERTIFICATE-----
