Certificate:
    Data:
        Version: 1 (0x0)
        Serial Number:
            20:f7:63:c0:41:83:b1:05:37:db:e8:50:6a:22:50:f0
    Signature Algorithm: sha256WithRSAEncryption
        Issuer: O=SharpLab., CN=spring-security-webauthn 2tier test root CA
        Validity
            Not Before: May 20 06:19:24 2018 GMT
            Not After : Apr 26 06:19:24 2118 GMT
        Subject: ST=Kanagawa, O=SharpLab., OU=Authenticator Attestation, CN=webauthn4j test 2tier authenticator attestation
        Subject Public Key Info:
            Public Key Algorithm: id-ecPublicKey
                Public-Key: (256 bit)
                pub: 
                    04:60:e7:5b:ac:89:8e:02:08:d9:37:75:db:f2:e9:
                    df:1c:78:49:0c:83:5d:23:29:28:96:df:b2:a4:6c:
                    5c:ae:8a:78:2b:06:ee:8d:7d:b3:be:84:46:66:f7:
                    68:43:d9:ae:fa:bc:23:01:9b:78:1f:74:8c:b1:2c:
                    4f:bc:1f:33:f0
                ASN1 OID: prime256v1
                NIST CURVE: P-256
    Signature Algorithm: sha256WithRSAEncryption
         ba:59:dd:61:78:da:72:ac:e2:37:4e:c0:1f:b3:42:ff:9c:a0:
         13:d9:5c:22:8e:8d:48:36:e7:c7:c7:75:f2:c0:72:eb:51:05:
         63:56:dc:6c:70:82:96:2e:64:fa:5e:1e:93:16:14:05:76:b0:
         42:1b:d6:fe:92:ed:89:bc:8a:1a:d3:43:a7:56:09:6a:3c:fc:
         1b:17:22:c8:cd:f4:60:8c:36:cf:1f:7b:9b:bc:9d:c1:dc:b4:
         fd:55:d7:62:d6:3d:b3:4e:8f:14:68:50:2c:9b:d7:25:20:71:
         d0:f9:cf:99:d7:0e:eb:ee:0a:00:ef:7a:42:69:ac:08:b9:75:
         30:1c:b4:8b:e7:4c:04:7a:de:a6:61:60:d0:82:28:ee:07:0c:
         3f:55:0e:40:35:94:54:81:1b:fa:5e:41:6f:24:cc:46:2f:7c:
         6b:23:50:c0:60:41:8d:44:d5:7c:67:2b:63:a7:ae:71:9d:74:
         c5:d9:be:3d:fd:3a:46:15:b1:16:1a:70:d1:07:cd:0a:11:64:
         7e:43:98:07:c1:87:a9:8f:32:bb:13:2b:dc:f2:a3:4d:b9:b9:
         f5:97:a3:ca:3d:c6:0d:f5:56:38:6a:38:74:e8:cf:df:dd:cc:
         61:d4:43:93:c8:22:23:ad:6b:79:36:97:ee:62:40:77:18:3d:
         cf:fa:98:d7
-----BEGIN CERTIFICATE-----
MIICijCCAXICECD3Y8BBg7EFN9voUGoiUPAwDQYJKoZIhvcNAQELBQAwSjESMBAG
A1UECgwJU2hhcnBMYWIuMTQwMgYDVQQDDCtzcHJpbmctc2VjdXJpdHktd2ViYXV0
aG4gMnRpZXIgdGVzdCByb290IENBMCAXDTE4MDUyMDA2MTkyNFoYDzIxMTgwNDI2
MDYxOTI0WjCBhTERMA8GA1UECAwIS2FuYWdhd2ExEjAQBgNVBAoMCVNoYXJwTGFi
LjEiMCAGA1UECwwZQXV0aGVudGljYXRvciBBdHRlc3RhdGlvbjE4MDYGA1UEAwwv
d2ViYXV0aG40aiB0ZXN0IDJ0aWVyIGF1dGhlbnRpY2F0b3IgYXR0ZXN0YXRpb24w
WTATBgcqhkjOPQIBBggqhkjOPQMBBwNCAARg51usiY4CCNk3ddvy6d8ceEkMg10j
KSiW37KkbFyuingrBu6NfbO+hEZm92hD2a76vCMBm3gfdIyxLE+8HzPwMA0GCSqG
SIb3DQEBCwUAA4IBAQC6Wd1heNpyrOI3TsAfs0L/nKAT2Vwijo1INufHx3XywHLr
UQVjVtxscIKWLmT6Xh6TFhQFdrBCG9b+ku2JvIoa00OnVglqPPwbFyLIzfRgjDbP
H3ubvJ3B3LT9Vddi1j2zTo8UaFAsm9clIHHQ+c+Z1w7r7goA73pCaawIuXUwHLSL
50wEet6mYWDQgijuBww/VQ5ANZRUgRv6XkFvJMxGL3xrI1DAYEGNRNV8Zytjp65x
nXTF2b49/TpGFbEWGnDRB80KEWR+Q5gHwYepjzK7Eyvc8qNNubn1l6PKPcYN9VY4
ajh06M/f3cxh1EOTyCIjrWt5NpfuYkB3GD3P+pjX
-----END CERTIFICATE-----
